; ModuleID = 'source-C-CXX/54/1457.cpp'
source_filename = "source-C-CXX/54/1457.cpp"
target datalayout = "e-m:e-p270:32:32-p271:32:32-p272:64:64-i64:64-f80:128-n8:16:32:64-S128"
target triple = "x86_64-pc-linux-gnu"

%"class.std::ios_base::Init" = type { i8 }
%"class.std::basic_istream" = type { i32 (...)**, i64, %"class.std::basic_ios" }
%"class.std::basic_ios" = type { %"class.std::ios_base", %"class.std::basic_ostream"*, i8, i8, %"class.std::basic_streambuf"*, %"class.std::ctype"*, %"class.std::num_put"*, %"class.std::num_get"* }
%"class.std::ios_base" = type { i32 (...)**, i64, i64, i32, i32, i32, %"struct.std::ios_base::_Callback_list"*, %"struct.std::ios_base::_Words", [8 x %"struct.std::ios_base::_Words"], i32, %"struct.std::ios_base::_Words"*, %"class.std::locale" }
%"struct.std::ios_base::_Callback_list" = type { %"struct.std::ios_base::_Callback_list"*, void (i32, %"class.std::ios_base"*, i32)*, i32, i32 }
%"struct.std::ios_base::_Words" = type { i8*, i64 }
%"class.std::locale" = type { %"class.std::locale::_Impl"* }
%"class.std::locale::_Impl" = type { i32, %"class.std::locale::facet"**, i64, %"class.std::locale::facet"**, i8** }
%"class.std::locale::facet" = type <{ i32 (...)**, i32, [4 x i8] }>
%"class.std::basic_ostream" = type { i32 (...)**, %"class.std::basic_ios" }
%"class.std::basic_streambuf" = type { i32 (...)**, i8*, i8*, i8*, i8*, i8*, i8*, %"class.std::locale" }
%"class.std::ctype" = type <{ %"class.std::locale::facet.base", [4 x i8], %struct.__locale_struct*, i8, [7 x i8], i32*, i32*, i16*, i8, [256 x i8], [256 x i8], i8, [6 x i8] }>
%"class.std::locale::facet.base" = type <{ i32 (...)**, i32 }>
%struct.__locale_struct = type { [13 x %struct.__locale_data*], i16*, i32*, i32*, [13 x i8*] }
%struct.__locale_data = type opaque
%"class.std::num_put" = type { %"class.std::locale::facet.base", [4 x i8] }
%"class.std::num_get" = type { %"class.std::locale::facet.base", [4 x i8] }

@_ZStL8__ioinit = internal global %"class.std::ios_base::Init" zeroinitializer, align 1
@__dso_handle = external hidden global i8
@_ZSt3cin = external global %"class.std::basic_istream", align 8
@_ZSt4cout = external global %"class.std::basic_ostream", align 8
@llvm.global_ctors = appending global [1 x { i32, void ()*, i8* }] [{ i32, void ()*, i8* } { i32 65535, void ()* @_GLOBAL__sub_I_1457.cpp, i8* null }]

declare void @_ZNSt8ios_base4InitC1Ev(%"class.std::ios_base::Init"* nonnull align 1 dereferenceable(1)) unnamed_addr #0

; Function Attrs: nounwind
declare void @_ZNSt8ios_base4InitD1Ev(%"class.std::ios_base::Init"* nonnull align 1 dereferenceable(1)) unnamed_addr #1

; Function Attrs: nofree nounwind
declare i32 @__cxa_atexit(void (i8*)*, i8*, i8*) local_unnamed_addr #2

; Function Attrs: mustprogress norecurse sspstrong uwtable
define dso_local i32 @main() local_unnamed_addr #3 {
  %1 = alloca i8, align 1
  %2 = alloca [90000 x i8], align 16
  %3 = alloca [90000 x i8], align 16
  %4 = alloca i64, align 8
  %5 = alloca i64, align 8
  %6 = getelementptr inbounds [90000 x i8], [90000 x i8]* %2, i64 0, i64 0
  call void @llvm.lifetime.start.p0i8(i64 90000, i8* nonnull %6) #7
  %7 = getelementptr inbounds [90000 x i8], [90000 x i8]* %3, i64 0, i64 0
  call void @llvm.lifetime.start.p0i8(i64 90000, i8* nonnull %7) #7
  %8 = bitcast i64* %4 to i8*
  call void @llvm.lifetime.start.p0i8(i64 8, i8* nonnull %8) #7
  %9 = bitcast i64* %5 to i8*
  call void @llvm.lifetime.start.p0i8(i64 8, i8* nonnull %9) #7
  %10 = call nonnull align 8 dereferenceable(16) %"class.std::basic_istream"* @_ZNSi10_M_extractIlEERSiRT_(%"class.std::basic_istream"* nonnull align 8 dereferenceable(16) @_ZSt3cin, i64* nonnull align 8 dereferenceable(8) %4)
  call void @_ZSt17__istream_extractRSiPcl(%"class.std::basic_istream"* nonnull align 8 dereferenceable(16) @_ZSt3cin, i8* nonnull %6, i64 90000)
  %11 = call nonnull align 8 dereferenceable(16) %"class.std::basic_istream"* @_ZNSi10_M_extractIlEERSiRT_(%"class.std::basic_istream"* nonnull align 8 dereferenceable(16) @_ZSt3cin, i64* nonnull align 8 dereferenceable(8) %5)
  %12 = call i64 @strlen(i8* noundef nonnull %6) #8
  %13 = load i64, i64* %4, align 8
  %14 = icmp sgt i64 %12, 0
  br i1 %14, label %15, label %43

15:                                               ; preds = %0, %15
  %16 = phi i64 [ %36, %15 ], [ 0, %0 ]
  %17 = phi i64 [ %39, %15 ], [ 0, %0 ]
  %18 = phi i64 [ %38, %15 ], [ 0, %0 ]
  %19 = getelementptr inbounds [90000 x i8], [90000 x i8]* %2, i64 0, i64 %17
  %20 = load i8, i8* %19, align 1, !tbaa !5
  %21 = sext i8 %20 to i64
  %22 = add i8 %20, -48
  %23 = icmp ult i8 %22, 10
  %24 = add nsw i64 %21, 4294967248
  %25 = and i64 %24, 4294967295
  %26 = select i1 %23, i64 %25, i64 %16
  %27 = add i8 %20, -65
  %28 = icmp ult i8 %27, 26
  %29 = add nsw i64 %21, 4294967241
  %30 = and i64 %29, 4294967295
  %31 = select i1 %28, i64 %30, i64 %26
  %32 = add i8 %20, -97
  %33 = icmp ult i8 %32, 26
  %34 = add nsw i64 %21, 4294967209
  %35 = and i64 %34, 4294967295
  %36 = select i1 %33, i64 %35, i64 %31
  %37 = mul nsw i64 %13, %18
  %38 = add nsw i64 %36, %37
  %39 = add nuw nsw i64 %17, 1
  %40 = icmp eq i64 %39, %12
  br i1 %40, label %41, label %15, !llvm.loop !8

41:                                               ; preds = %15
  %42 = icmp eq i64 %38, 0
  br i1 %42, label %43, label %45

43:                                               ; preds = %41, %0
  %44 = call nonnull align 8 dereferenceable(8) %"class.std::basic_ostream"* @_ZNSolsEi(%"class.std::basic_ostream"* nonnull align 8 dereferenceable(8) @_ZSt4cout, i32 0)
  br label %67

45:                                               ; preds = %41
  %46 = load i64, i64* %5, align 8
  %47 = icmp sgt i64 %38, 0
  br i1 %47, label %48, label %67

48:                                               ; preds = %45, %48
  %49 = phi i64 [ %57, %48 ], [ 0, %45 ]
  %50 = phi i64 [ %58, %48 ], [ %38, %45 ]
  %51 = srem i64 %50, %46
  %52 = icmp sgt i64 %51, 9
  %53 = trunc i64 %51 to i8
  %54 = select i1 %52, i8 55, i8 48
  %55 = add i8 %54, %53
  %56 = getelementptr inbounds [90000 x i8], [90000 x i8]* %3, i64 0, i64 %49
  store i8 %55, i8* %56, align 1
  %57 = add nuw nsw i64 %49, 1
  %58 = sdiv i64 %50, %46
  %59 = icmp sgt i64 %58, 0
  br i1 %59, label %48, label %60, !llvm.loop !10

60:                                               ; preds = %48, %60
  %61 = phi i64 [ %62, %60 ], [ %57, %48 ]
  %62 = add nsw i64 %61, -1
  %63 = getelementptr inbounds [90000 x i8], [90000 x i8]* %3, i64 0, i64 %62
  %64 = load i8, i8* %63, align 1, !tbaa !5
  call void @llvm.lifetime.start.p0i8(i64 1, i8* nonnull %1)
  store i8 %64, i8* %1, align 1, !tbaa !5
  %65 = call nonnull align 8 dereferenceable(8) %"class.std::basic_ostream"* @_ZSt16__ostream_insertIcSt11char_traitsIcEERSt13basic_ostreamIT_T0_ES6_PKS3_l(%"class.std::basic_ostream"* nonnull align 8 dereferenceable(8) @_ZSt4cout, i8* nonnull %1, i64 1)
  call void @llvm.lifetime.end.p0i8(i64 1, i8* nonnull %1)
  %66 = icmp sgt i64 %61, 1
  br i1 %66, label %60, label %67, !llvm.loop !11

67:                                               ; preds = %60, %43, %45
  call void @llvm.lifetime.end.p0i8(i64 8, i8* nonnull %9) #7
  call void @llvm.lifetime.end.p0i8(i64 8, i8* nonnull %8) #7
  call void @llvm.lifetime.end.p0i8(i64 90000, i8* nonnull %7) #7
  call void @llvm.lifetime.end.p0i8(i64 90000, i8* nonnull %6) #7
  ret i32 0
}

; Function Attrs: argmemonly mustprogress nofree nosync nounwind willreturn
declare void @llvm.lifetime.start.p0i8(i64 immarg, i8* nocapture) #4

; Function Attrs: argmemonly mustprogress nofree nounwind readonly willreturn
declare i64 @strlen(i8* nocapture) local_unnamed_addr #5

declare nonnull align 8 dereferenceable(8) %"class.std::basic_ostream"* @_ZNSolsEi(%"class.std::basic_ostream"* nonnull align 8 dereferenceable(8), i32) local_unnamed_addr #0

; Function Attrs: argmemonly mustprogress nofree nosync nounwind willreturn
declare void @llvm.lifetime.end.p0i8(i64 immarg, i8* nocapture) #4

declare nonnull align 8 dereferenceable(16) %"class.std::basic_istream"* @_ZNSi10_M_extractIlEERSiRT_(%"class.std::basic_istream"* nonnull align 8 dereferenceable(16), i64* nonnull align 8 dereferenceable(8)) local_unnamed_addr #0

declare void @_ZSt17__istream_extractRSiPcl(%"class.std::basic_istream"* nonnull align 8 dereferenceable(16), i8*, i64) local_unnamed_addr #0

declare nonnull align 8 dereferenceable(8) %"class.std::basic_ostream"* @_ZSt16__ostream_insertIcSt11char_traitsIcEERSt13basic_ostreamIT_T0_ES6_PKS3_l(%"class.std::basic_ostream"* nonnull align 8 dereferenceable(8), i8*, i64) local_unnamed_addr #0

; Function Attrs: sspstrong uwtable
define internal void @_GLOBAL__sub_I_1457.cpp() #6 section ".text.startup" {
  tail call void @_ZNSt8ios_base4InitC1Ev(%"class.std::ios_base::Init"* nonnull align 1 dereferenceable(1) @_ZStL8__ioinit)
  %1 = tail call i32 @__cxa_atexit(void (i8*)* bitcast (void (%"class.std::ios_base::Init"*)* @_ZNSt8ios_base4InitD1Ev to void (i8*)*), i8* getelementptr inbounds (%"class.std::ios_base::Init", %"class.std::ios_base::Init"* @_ZStL8__ioinit, i64 0, i32 0), i8* nonnull @__dso_handle) #7
  ret void
}


!llvm.module.flags = !{!0, !1, !2, !3}
!llvm.ident = !{!4}

!0 = !{i32 1, !"wchar_size", i32 4}
!1 = !{i32 7, !"PIC Level", i32 2}
!2 = !{i32 7, !"PIE Level", i32 2}
!3 = !{i32 7, !"uwtable", i32 1}
!4 = !{!"clang version 13.0.0"}
!5 = !{!6, !6, i64 0}
!6 = !{!"omnipotent char", !7, i64 0}
!7 = !{!"Simple C++ TBAA"}
!8 = distinct !{!8, !9}
!9 = !{!"llvm.loop.mustprogress"}
!10 = distinct !{!10, !9}
!11 = distinct !{!11, !9}
